target datalayout = "e-m:e-p270:32:32-p271:32:32-p272:64:64-i64:64-i128:128-f80:128-n8:16:32:64-S128"
target triple = "x86_64-pc-linux-gnu"

%"struct.Luau::EqSat::Id" = type { i32 }
%"struct.Luau::EqSat::NodeVector" = type { %"struct.std::array" }
%"struct.std::array" = type { [1 x %"struct.Luau::EqSat::Id"] }
%"struct.std::hash" = type { i8 }
%"struct.Luau::EqSat::LanguageHash.536" = type { i8 }
%"struct.Luau::EqSat::NodeVector<Luau::EqSatSimplification::Negation, std::array<Luau::EqSat::Id, 1>>::Hash" = type { i8 }
%"struct.Luau::EqSat::LanguageHash.551" = type { i8 }

; Function Attrs: mustprogress nounwind uwtable
define linkonce_odr dso_local noundef ptr @_ZNSt14__array_traitsIN4Luau5EqSat2IdELm1EE6_S_ptrERA1_KS2_(ptr noundef nonnull align 4 dereferenceable(4) %0) #5 comdat align 2 {
  %2 = alloca ptr, align 8
  store ptr %0, ptr %2, align 8, !tbaa !28
  %3 = load ptr, ptr %2, align 8, !tbaa !28
  %4 = getelementptr inbounds [1 x %"struct.Luau::EqSat::Id"], ptr %3, i64 0, i64 0
  ret ptr %4
}

; Function Attrs: mustprogress uwtable
define linkonce_odr dso_local noundef i64 @_ZNK4Luau5EqSat12LanguageHashINS0_2IdEEclERKS2_Pm(ptr noundef nonnull align 1 dereferenceable(1) %0, ptr noundef nonnull align 4 dereferenceable(4) %1, ptr noundef %2) #6 comdat align 2 {
  %4 = alloca ptr, align 8
  %5 = alloca ptr, align 8
  %6 = alloca ptr, align 8
  %7 = alloca %"struct.std::hash", align 1
  %8 = alloca %"struct.Luau::EqSat::Id", align 4
  store ptr %0, ptr %4, align 8, !tbaa !1588
  store ptr %1, ptr %5, align 8, !tbaa !28
  store ptr %2, ptr %6, align 8, !tbaa !65
  call void @llvm.lifetime.start.p0(i64 1, ptr %7) #4
  %9 = load ptr, ptr %5, align 8, !tbaa !28
  call void @llvm.memcpy.p0.p0.i64(ptr align 4 %8, ptr align 4 %9, i64 4, i1 false), !tbaa.struct !47
  %10 = getelementptr inbounds nuw %"struct.Luau::EqSat::Id", ptr %8, i32 0, i32 0
  %11 = load i32, ptr %10, align 4
  %12 = call noundef i64 @_ZNKSt4hashIN4Luau5EqSat2IdEEclES2_(ptr noundef nonnull align 1 dereferenceable(1) %7, i32 %11)
  call void @llvm.lifetime.end.p0(i64 1, ptr %7) #4
  ret i64 %12
}

; Function Attrs: mustprogress nounwind uwtable
define linkonce_odr dso_local noundef ptr @_ZNKSt5arrayIN4Luau5EqSat2IdELm1EE4dataEv(ptr noundef nonnull align 4 dereferenceable(4) %0) #5 comdat align 2 {
  %2 = alloca ptr, align 8
  store ptr %0, ptr %2, align 8, !tbaa !241
  %3 = load ptr, ptr %2, align 8
  %4 = getelementptr inbounds nuw %"struct.std::array", ptr %3, i32 0, i32 0
  %5 = call noundef ptr @_ZNSt14__array_traitsIN4Luau5EqSat2IdELm1EE6_S_ptrERA1_KS2_(ptr noundef nonnull align 4 dereferenceable(4) %4) #4
  ret ptr %5
}

; Function Attrs: inlinehint mustprogress nounwind uwtable
define linkonce_odr dso_local void @_ZN4Luau5EqSat11hashCombineERmm(ptr noundef nonnull align 8 dereferenceable(8) %0, i64 noundef %1) #9 comdat {
  %3 = alloca ptr, align 8
  %4 = alloca i64, align 8
  store ptr %0, ptr %3, align 8, !tbaa !65
  store i64 %1, ptr %4, align 8, !tbaa !38
  %5 = load i64, ptr %4, align 8, !tbaa !38
  %6 = add i64 %5, 2654435769
  %7 = load ptr, ptr %3, align 8, !tbaa !65
  %8 = load i64, ptr %7, align 8, !tbaa !38
  %9 = shl i64 %8, 6
  %10 = add i64 %6, %9
  %11 = load ptr, ptr %3, align 8, !tbaa !65
  %12 = load i64, ptr %11, align 8, !tbaa !38
  %13 = lshr i64 %12, 2
  %14 = add i64 %10, %13
  %15 = load ptr, ptr %3, align 8, !tbaa !65
  %16 = load i64, ptr %15, align 8, !tbaa !38
  %17 = xor i64 %16, %14
  store i64 %17, ptr %15, align 8, !tbaa !38
  ret void
}

; Function Attrs: mustprogress uwtable
define linkonce_odr dso_local noundef i64 @_ZN4Luau5EqSat12languageHashINS0_2IdEEEmRKT_(ptr noundef nonnull align 4 dereferenceable(4) %0) #6 comdat {
  %2 = alloca ptr, align 8
  %3 = alloca %"struct.Luau::EqSat::LanguageHash.536", align 1
  store ptr %0, ptr %2, align 8, !tbaa !28
  call void @llvm.lifetime.start.p0(i64 1, ptr %3) #4
  %4 = load ptr, ptr %2, align 8, !tbaa !28
  %5 = call noundef i64 @_ZNK4Luau5EqSat12LanguageHashINS0_2IdEEclERKS2_Pm(ptr noundef nonnull align 1 dereferenceable(1) %3, ptr noundef nonnull align 4 dereferenceable(4) %4, ptr noundef null)
  call void @llvm.lifetime.end.p0(i64 1, ptr %3) #4
  ret i64 %5
}

; Function Attrs: mustprogress nounwind uwtable
define linkonce_odr dso_local noundef ptr @_ZNKSt5arrayIN4Luau5EqSat2IdELm1EE3endEv(ptr noundef nonnull align 4 dereferenceable(4) %0) #5 comdat align 2 {
  %2 = alloca ptr, align 8
  store ptr %0, ptr %2, align 8, !tbaa !241
  %3 = load ptr, ptr %2, align 8
  %4 = call noundef ptr @_ZNKSt5arrayIN4Luau5EqSat2IdELm1EE4dataEv(ptr noundef nonnull align 4 dereferenceable(4) %3) #4
  %5 = getelementptr inbounds nuw %"struct.Luau::EqSat::Id", ptr %4, i64 1
  ret ptr %5
}

; Function Attrs: mustprogress nounwind uwtable
define linkonce_odr dso_local noundef ptr @_ZNKSt5arrayIN4Luau5EqSat2IdELm1EE5beginEv(ptr noundef nonnull align 4 dereferenceable(4) %0) #5 comdat align 2 {
  %2 = alloca ptr, align 8
  store ptr %0, ptr %2, align 8, !tbaa !241
  %3 = load ptr, ptr %2, align 8
  %4 = call noundef ptr @_ZNKSt5arrayIN4Luau5EqSat2IdELm1EE4dataEv(ptr noundef nonnull align 4 dereferenceable(4) %3) #4
  ret ptr %4
}

; Function Attrs: mustprogress uwtable
define linkonce_odr dso_local noundef i64 @_ZNK4Luau5EqSat12LanguageHashISt5arrayINS0_2IdELm1EEEclERKS4_(ptr noundef nonnull align 1 dereferenceable(1) %0, ptr noundef nonnull align 4 dereferenceable(4) %1) #6 comdat align 2 {
  %3 = alloca ptr, align 8
  %4 = alloca ptr, align 8
  %5 = alloca i64, align 8
  %6 = alloca ptr, align 8
  %7 = alloca ptr, align 8
  %8 = alloca ptr, align 8
  %9 = alloca ptr, align 8
  store ptr %0, ptr %3, align 8, !tbaa !1742
  store ptr %1, ptr %4, align 8, !tbaa !241
  call void @llvm.lifetime.start.p0(i64 8, ptr %5) #4
  store i64 0, ptr %5, align 8, !tbaa !38
  call void @llvm.lifetime.start.p0(i64 8, ptr %6) #4
  %10 = load ptr, ptr %4, align 8, !tbaa !241
  store ptr %10, ptr %6, align 8, !tbaa !241
  call void @llvm.lifetime.start.p0(i64 8, ptr %7) #4
  %11 = load ptr, ptr %6, align 8, !tbaa !241
  %12 = call noundef ptr @_ZNKSt5arrayIN4Luau5EqSat2IdELm1EE5beginEv(ptr noundef nonnull align 4 dereferenceable(4) %11) #4
  store ptr %12, ptr %7, align 8, !tbaa !28
  call void @llvm.lifetime.start.p0(i64 8, ptr %8) #4
  %13 = load ptr, ptr %6, align 8, !tbaa !241
  %14 = call noundef ptr @_ZNKSt5arrayIN4Luau5EqSat2IdELm1EE3endEv(ptr noundef nonnull align 4 dereferenceable(4) %13) #4
  store ptr %14, ptr %8, align 8, !tbaa !28
  br label %15

15:                                               ; preds = %24, %2
  %16 = load ptr, ptr %7, align 8, !tbaa !28
  %17 = load ptr, ptr %8, align 8, !tbaa !28
  %18 = icmp ne ptr %16, %17
  br i1 %18, label %20, label %19

19:                                               ; preds = %15
  call void @llvm.lifetime.end.p0(i64 8, ptr %8) #4
  call void @llvm.lifetime.end.p0(i64 8, ptr %7) #4
  call void @llvm.lifetime.end.p0(i64 8, ptr %6) #4
  br label %27

20:                                               ; preds = %15
  call void @llvm.lifetime.start.p0(i64 8, ptr %9) #4
  %21 = load ptr, ptr %7, align 8, !tbaa !28
  store ptr %21, ptr %9, align 8, !tbaa !28
  %22 = load ptr, ptr %9, align 8, !tbaa !28
  %23 = call noundef i64 @_ZN4Luau5EqSat12languageHashINS0_2IdEEEmRKT_(ptr noundef nonnull align 4 dereferenceable(4) %22)
  call void @_ZN4Luau5EqSat11hashCombineERmm(ptr noundef nonnull align 8 dereferenceable(8) %5, i64 noundef %23)
  call void @llvm.lifetime.end.p0(i64 8, ptr %9) #4
  br label %24

24:                                               ; preds = %20
  %25 = load ptr, ptr %7, align 8, !tbaa !28
  %26 = getelementptr inbounds nuw %"struct.Luau::EqSat::Id", ptr %25, i32 1
  store ptr %26, ptr %7, align 8, !tbaa !28
  br label %15

27:                                               ; preds = %19
  %28 = load i64, ptr %5, align 8, !tbaa !38
  call void @llvm.lifetime.end.p0(i64 8, ptr %5) #4
  ret i64 %28
}

; Function Attrs: mustprogress uwtable
define linkonce_odr dso_local noundef i64 @_ZN4Luau5EqSat12languageHashISt5arrayINS0_2IdELm1EEEEmRKT_(ptr noundef nonnull align 4 dereferenceable(4) %0) #6 comdat {
  %2 = alloca ptr, align 8
  %3 = alloca %"struct.Luau::EqSat::LanguageHash.551", align 1
  store ptr %0, ptr %2, align 8, !tbaa !241
  call void @llvm.lifetime.start.p0(i64 1, ptr %3) #4
  %4 = load ptr, ptr %2, align 8, !tbaa !241
  %5 = call noundef i64 @_ZNK4Luau5EqSat12LanguageHashISt5arrayINS0_2IdELm1EEEclERKS4_(ptr noundef nonnull align 1 dereferenceable(1) %3, ptr noundef nonnull align 4 dereferenceable(4) %4)
  call void @llvm.lifetime.end.p0(i64 1, ptr %3) #4
  ret i64 %5
}

; Function Attrs: mustprogress uwtable
define linkonce_odr dso_local noundef i64 @_ZNK4Luau5EqSat10NodeVectorINS_19EqSatSimplification8NegationESt5arrayINS0_2IdELm1EEE4HashclERKS7_(ptr noundef nonnull align 1 dereferenceable(1) %0, ptr noundef nonnull align 4 dereferenceable(4) %1) #6 comdat align 2 {
  %3 = alloca ptr, align 8
  %4 = alloca ptr, align 8
  store ptr %0, ptr %3, align 8, !tbaa !1740
  store ptr %1, ptr %4, align 8, !tbaa !451
  %5 = load ptr, ptr %4, align 8, !tbaa !451
  %6 = getelementptr inbounds nuw %"struct.Luau::EqSat::NodeVector", ptr %5, i32 0, i32 0
  %7 = call noundef i64 @_ZN4Luau5EqSat12languageHashISt5arrayINS0_2IdELm1EEEEmRKT_(ptr noundef nonnull align 4 dereferenceable(4) %6)
  ret i64 %7
}

; Function Attrs: inlinehint mustprogress uwtable
define linkonce_odr dso_local noundef i64 @_ZZNK4Luau5EqSat8LanguageIJNS_19EqSatSimplification4TNilENS2_8TBooleanENS2_7TNumberENS2_7TStringENS2_7TThreadENS2_12TTopFunctionENS2_9TTopTableENS2_9TTopClassENS2_7TBufferENS2_7TOpaqueENS2_8SBooleanENS2_7SStringENS2_9TFunctionENS2_6TTableENS2_14TImportedTableENS2_6TClassENS2_4TAnyENS2_6TErrorENS2_8TUnknownENS2_6TNeverENS2_5UnionENS2_12IntersectionENS2_8NegationENS2_8TTypeFunENS2_7InvalidENS2_9TNoRefineENS2_6TBoundEEE4HashclERKSU_ENKUlOT_E_clIRKSP_EEDaSZ_(ptr noundef nonnull align 1 dereferenceable(1) %0, ptr noundef nonnull align 4 dereferenceable(4) %1) #8 comdat align 2 {
  %3 = alloca ptr, align 8
  %4 = alloca ptr, align 8
  %5 = alloca %"struct.Luau::EqSat::NodeVector<Luau::EqSatSimplification::Negation, std::array<Luau::EqSat::Id, 1>>::Hash", align 1
  store ptr %0, ptr %3, align 8, !tbaa !104
  store ptr %1, ptr %4, align 8, !tbaa !239
  call void @llvm.lifetime.start.p0(i64 1, ptr %5) #4
  %6 = load ptr, ptr %4, align 8, !tbaa !239
  %7 = call noundef i64 @_ZNK4Luau5EqSat10NodeVectorINS_19EqSatSimplification8NegationESt5arrayINS0_2IdELm1EEE4HashclERKS7_(ptr noundef nonnull align 1 dereferenceable(1) %5, ptr noundef nonnull align 4 dereferenceable(4) %6)
  call void @llvm.lifetime.end.p0(i64 1, ptr %5) #4
  ret i64 %7
}

; Function Attrs: mustprogress uwtable
define internal void @_ZN4LuauL8fnVisitRIZNKS_5EqSat8LanguageIJNS_19EqSatSimplification4TNilENS3_8TBooleanENS3_7TNumberENS3_7TStringENS3_7TThreadENS3_12TTopFunctionENS3_9TTopTableENS3_9TTopClassENS3_7TBufferENS3_7TOpaqueENS3_8SBooleanENS3_7SStringENS3_9TFunctionENS3_6TTableENS3_14TImportedTableENS3_6TClassENS3_4TAnyENS3_6TErrorENS3_8TUnknownENS3_6TNeverENS3_5UnionENS3_12IntersectionENS3_8NegationENS3_8TTypeFunENS3_7InvalidENS3_9TNoRefineENS3_6TBoundEEE4HashclERKSV_EUlOT_E_mKSQ_EEvRSZ_RT0_PNSt11conditionalIXsr3stdE10is_const_vIT1_EEKvvE4typeE(ptr noundef nonnull align 1 dereferenceable(1) %0, ptr noundef nonnull align 8 dereferenceable(8) %1, ptr noundef %2) #6 {
  %4 = alloca ptr, align 8
  %5 = alloca ptr, align 8
  %6 = alloca ptr, align 8
  store ptr %0, ptr %4, align 8, !tbaa !104
  store ptr %1, ptr %5, align 8, !tbaa !65
  store ptr %2, ptr %6, align 8, !tbaa !104
  %7 = load ptr, ptr %4, align 8, !tbaa !104
  %8 = load ptr, ptr %6, align 8, !tbaa !104
  %9 = call noundef i64 @_ZZNK4Luau5EqSat8LanguageIJNS_19EqSatSimplification4TNilENS2_8TBooleanENS2_7TNumberENS2_7TStringENS2_7TThreadENS2_12TTopFunctionENS2_9TTopTableENS2_9TTopClassENS2_7TBufferENS2_7TOpaqueENS2_8SBooleanENS2_7SStringENS2_9TFunctionENS2_6TTableENS2_14TImportedTableENS2_6TClassENS2_4TAnyENS2_6TErrorENS2_8TUnknownENS2_6TNeverENS2_5UnionENS2_12IntersectionENS2_8NegationENS2_8TTypeFunENS2_7InvalidENS2_9TNoRefineENS2_6TBoundEEE4HashclERKSU_ENKUlOT_E_clIRKSP_EEDaSZ_(ptr noundef nonnull align 1 dereferenceable(1) %7, ptr noundef nonnull align 4 dereferenceable(4) %8)
  %10 = load ptr, ptr %5, align 8, !tbaa !65
  store i64 %9, ptr %10, align 8, !tbaa !38
  ret void
}