; Function Attrs: mustprogress uwtable
define internal void @_ZN4LuauL8fnVisitRIZNKS_5EqSat8LanguageIJNS_19EqSatSimplification4TNilENS3_8TBooleanENS3_7TNumberENS3_7TStringENS3_7TThreadENS3_12TTopFunctionENS3_9TTopTableENS3_9TTopClassENS3_7TBufferENS3_7TOpaqueENS3_8SBooleanENS3_7SStringENS3_9TFunctionENS3_6TTableENS3_14TImportedTableENS3_6TClassENS3_4TAnyENS3_6TErrorENS3_8TUnknownENS3_6TNeverENS3_5UnionENS3_12IntersectionENS3_8NegationENS3_8TTypeFunENS3_7InvalidENS3_9TNoRefineENS3_6TBoundEEE4HashclERKSV_EUlOT_E_mKSQ_EEvRSZ_RT0_PNSt11conditionalIXsr3stdE10is_const_vIT1_EEKvvE4typeE(ptr nonnull readnone align 1 captures(none) %0, ptr noundef nonnull writeonly align 8 captures(none) dereferenceable(8) initializes((0, 8)) %1, ptr noundef readonly captures(none) %2) #5 {
  %4 = alloca %"struct.std::hash", align 1
  call void @llvm.lifetime.start.p0(i64 1, ptr nonnull %4) #37
  %.sroa.0.0.copyload.i.i.i.i.i.i = load i32, ptr %2, align 4, !tbaa !4
  %5 = call noundef i64 @_ZNKSt4hashIN4Luau5EqSat2IdEEclES2_(ptr noundef nonnull align 1 dereferenceable(1) %4, i32 %.sroa.0.0.copyload.i.i.i.i.i.i)
  call void @llvm.lifetime.end.p0(i64 1, ptr nonnull %4) #37
  %6 = add i64 %5, 2654435769
  store i64 %6, ptr %1, align 8, !tbaa !45
  ret void
}